; Function Attrs: nounwind uwtable
define internal void @X11_VideoQuit(ptr noundef %0) #0 {
  %2 = getelementptr inbounds nuw i8, ptr %0, i64 1656
  %3 = load ptr, ptr %2, align 8
  %4 = getelementptr inbounds nuw i8, ptr %3, i64 72
  %5 = load i64, ptr %4, align 8
  %.not = icmp eq i64 %5, 0
  br i1 %.not, label %10, label %6

6:                                                ; preds = %1
  %7 = load ptr, ptr @X11_XDestroyWindow, align 8
  %8 = load ptr, ptr %3, align 8
  %9 = tail call i32 %7(ptr noundef %8, i64 noundef %5) #5
  br label %10

10:                                               ; preds = %6, %1
  %11 = getelementptr inbounds nuw i8, ptr %3, i64 168
  %12 = load i64, ptr %11, align 8
  %.not18 = icmp eq i64 %12, 0
  br i1 %.not18, label %17, label %13

13:                                               ; preds = %10
  %14 = load ptr, ptr @X11_XDestroyWindow, align 8
  %15 = load ptr, ptr %3, align 8
  %16 = tail call i32 %14(ptr noundef %15, i64 noundef %12) #5
  br label %17

17:                                               ; preds = %13, %10
  %18 = getelementptr inbounds nuw i8, ptr %3, i64 24
  %19 = load ptr, ptr %18, align 8
  %.not19 = icmp eq ptr %19, null
  br i1 %.not19, label %23, label %20

20:                                               ; preds = %17
  %21 = load ptr, ptr @X11_XCloseIM, align 8
  %22 = tail call i32 %21(ptr noundef nonnull %19) #5
  br label %23

23:                                               ; preds = %20, %17
  tail call void @X11_QuitModes(ptr noundef nonnull %0) #5
  tail call void @X11_QuitKeyboard(ptr noundef nonnull %0) #5
  tail call void @X11_QuitMouse(ptr noundef nonnull %0) #5
  tail call void @X11_QuitTouch(ptr noundef nonnull %0) #5
  tail call void @X11_QuitPen(ptr noundef nonnull %0) #5
  tail call void @X11_QuitClipboard(ptr noundef nonnull %0) #5
  tail call void @X11_QuitXsettings(ptr noundef nonnull %0) #5
  ret void
}